target datalayout = "e-m:e-p270:32:32-p271:32:32-p272:64:64-i64:64-i128:128-f80:128-n8:16:32:64-S128"
target triple = "x86_64-pc-linux-gnu"

%"class.std::vector" = type { %"struct.std::_Vector_base" }
%"struct.std::_Vector_base" = type { %"struct.std::_Vector_base<std::__cxx11::basic_string<char>, std::allocator<std::__cxx11::basic_string<char>>>::_Vector_impl" }
%"struct.std::_Vector_base<std::__cxx11::basic_string<char>, std::allocator<std::__cxx11::basic_string<char>>>::_Vector_impl" = type { %"struct.std::_Vector_base<std::__cxx11::basic_string<char>, std::allocator<std::__cxx11::basic_string<char>>>::_Vector_impl_data" }
%"struct.std::_Vector_base<std::__cxx11::basic_string<char>, std::allocator<std::__cxx11::basic_string<char>>>::_Vector_impl_data" = type { ptr, ptr, ptr }
%"class.std::__cxx11::basic_string" = type { %"struct.std::__cxx11::basic_string<char>::_Alloc_hider", i64, %union.anon }
%"struct.std::__cxx11::basic_string<char>::_Alloc_hider" = type { ptr }
%union.anon = type { i64, [8 x i8] }
%"class.casadi::SharedObject" = type { %"class.casadi::GenericShared" }
%"class.casadi::GenericShared" = type { ptr }
%"struct.std::_Rb_tree_header" = type { %"struct.std::_Rb_tree_node_base", i64 }
%"struct.std::_Rb_tree_node_base" = type { i32, ptr, ptr, ptr }
%"class.casadi::DaeBuilderInternal" = type <{ %"class.casadi::SharedObjectInternal", i8, [7 x i8], double, i8, [7 x i8], %"class.std::__cxx11::basic_string", %"class.std::__cxx11::basic_string", %"class.std::__cxx11::basic_string", %"class.std::__cxx11::basic_string", %"class.std::__cxx11::basic_string", %"class.std::__cxx11::basic_string", %"class.std::__cxx11::basic_string", %"class.std::__cxx11::basic_string", %"class.std::__cxx11::basic_string", %"class.std::__cxx11::basic_string", i64, double, double, double, double, %"class.std::__cxx11::basic_string", i8, i8, i8, [5 x i8], %"class.std::vector", %"class.std::__cxx11::basic_string", %"class.std::__cxx11::basic_string", i8, [7 x i8], i64, %"class.std::vector.28", %"class.std::vector.33", %"class.std::vector.33", %"class.std::vector.33", %"class.std::unordered_map", %"class.std::unordered_map.43", %"class.std::vector.63", %"class.std::vector.33", %"class.std::vector.68", %"class.std::vector.68", %"class.std::vector.68", %"class.std::map.73", %"class.std::vector.78", [2 x [2 x [2 x %"class.casadi::Function"]]], i8, [7 x i8] }>
%"class.casadi::SharedObjectInternal" = type { %"class.casadi::GenericSharedInternal", i64 }
%"class.casadi::GenericSharedInternal" = type { ptr, ptr }
%"class.std::vector.28" = type { %"struct.std::_Vector_base.29" }
%"struct.std::_Vector_base.29" = type { %"struct.std::_Vector_base<casadi::Variable *, std::allocator<casadi::Variable *>>::_Vector_impl" }
%"struct.std::_Vector_base<casadi::Variable *, std::allocator<casadi::Variable *>>::_Vector_impl" = type { %"struct.std::_Vector_base<casadi::Variable *, std::allocator<casadi::Variable *>>::_Vector_impl_data" }
%"struct.std::_Vector_base<casadi::Variable *, std::allocator<casadi::Variable *>>::_Vector_impl_data" = type { ptr, ptr, ptr }
%"class.std::unordered_map" = type { %"class.std::_Hashtable" }
%"class.std::_Hashtable" = type { ptr, i64, %"struct.std::__detail::_Hash_node_base", i64, %"struct.std::__detail::_Prime_rehash_policy", ptr }
%"struct.std::__detail::_Hash_node_base" = type { ptr }
%"struct.std::__detail::_Prime_rehash_policy" = type { float, i64 }
%"class.std::unordered_map.43" = type { %"class.std::_Hashtable.44" }
%"class.std::_Hashtable.44" = type { ptr, i64, %"struct.std::__detail::_Hash_node_base", i64, %"struct.std::__detail::_Prime_rehash_policy", ptr }
%"class.std::vector.63" = type { %"struct.std::_Vector_base.64" }
%"struct.std::_Vector_base.64" = type { %"struct.std::_Vector_base<std::vector<unsigned long>, std::allocator<std::vector<unsigned long>>>::_Vector_impl" }
%"struct.std::_Vector_base<std::vector<unsigned long>, std::allocator<std::vector<unsigned long>>>::_Vector_impl" = type { %"struct.std::_Vector_base<std::vector<unsigned long>, std::allocator<std::vector<unsigned long>>>::_Vector_impl_data" }
%"struct.std::_Vector_base<std::vector<unsigned long>, std::allocator<std::vector<unsigned long>>>::_Vector_impl_data" = type { ptr, ptr, ptr }
%"class.std::vector.33" = type { %"struct.std::_Vector_base.34" }
%"struct.std::_Vector_base.34" = type { %"struct.std::_Vector_base<unsigned long, std::allocator<unsigned long>>::_Vector_impl" }
%"struct.std::_Vector_base<unsigned long, std::allocator<unsigned long>>::_Vector_impl" = type { %"struct.std::_Vector_base<unsigned long, std::allocator<unsigned long>>::_Vector_impl_data" }
%"struct.std::_Vector_base<unsigned long, std::allocator<unsigned long>>::_Vector_impl_data" = type { ptr, ptr, ptr }
%"class.std::vector.68" = type { %"struct.std::_Vector_base.69" }
%"struct.std::_Vector_base.69" = type { %"struct.std::_Vector_base<casadi::MX, std::allocator<casadi::MX>>::_Vector_impl" }
%"struct.std::_Vector_base<casadi::MX, std::allocator<casadi::MX>>::_Vector_impl" = type { %"struct.std::_Vector_base<casadi::MX, std::allocator<casadi::MX>>::_Vector_impl_data" }
%"struct.std::_Vector_base<casadi::MX, std::allocator<casadi::MX>>::_Vector_impl_data" = type { ptr, ptr, ptr }
%"class.std::map.73" = type { %"class.std::_Rb_tree.74" }
%"class.std::_Rb_tree.74" = type { %"struct.std::_Rb_tree<std::__cxx11::basic_string<char>, std::pair<const std::__cxx11::basic_string<char>, std::vector<std::__cxx11::basic_string<char>>>, std::_Select1st<std::pair<const std::__cxx11::basic_string<char>, std::vector<std::__cxx11::basic_string<char>>>>, std::less<std::__cxx11::basic_string<char>>>::_Rb_tree_impl" }
%"struct.std::_Rb_tree<std::__cxx11::basic_string<char>, std::pair<const std::__cxx11::basic_string<char>, std::vector<std::__cxx11::basic_string<char>>>, std::_Select1st<std::pair<const std::__cxx11::basic_string<char>, std::vector<std::__cxx11::basic_string<char>>>>, std::less<std::__cxx11::basic_string<char>>>::_Rb_tree_impl" = type { [8 x i8], %"struct.std::_Rb_tree_header" }
%"class.std::vector.78" = type { %"struct.std::_Vector_base.79" }
%"struct.std::_Vector_base.79" = type { %"struct.std::_Vector_base<casadi::Function, std::allocator<casadi::Function>>::_Vector_impl" }
%"struct.std::_Vector_base<casadi::Function, std::allocator<casadi::Function>>::_Vector_impl" = type { %"struct.std::_Vector_base<casadi::Function, std::allocator<casadi::Function>>::_Vector_impl_data" }
%"struct.std::_Vector_base<casadi::Function, std::allocator<casadi::Function>>::_Vector_impl_data" = type { ptr, ptr, ptr }
%"class.casadi::Function" = type { %"class.casadi::SharedObject" }
%"class.std::initializer_list.228" = type { ptr, i64 }

; Function Attrs: inlinehint mustprogress uwtable
define linkonce_odr hidden noundef nonnull align 8 dereferenceable(8) ptr @_ZN6casadi12SharedObjectaSERKS0_(ptr noundef nonnull align 8 dereferenceable(8) %0, ptr noundef nonnull align 8 dereferenceable(8) %1) #7 comdat align 2 {
  %3 = alloca ptr, align 8
  %4 = alloca ptr, align 8
  store ptr %0, ptr %3, align 8, !tbaa !623
  store ptr %1, ptr %4, align 8, !tbaa !623
  %5 = load ptr, ptr %3, align 8
  %6 = load ptr, ptr %4, align 8, !tbaa !623
  %7 = call noundef nonnull align 8 dereferenceable(8) ptr @_ZN6casadi13GenericSharedINS_12SharedObjectENS_20SharedObjectInternalEEaSERKS3_(ptr noundef nonnull align 8 dereferenceable(8) %5, ptr noundef nonnull align 8 dereferenceable(8) %6)
  ret ptr %5
}

; Function Attrs: mustprogress nounwind uwtable
define linkonce_odr hidden noundef i64 @_ZNKSt16initializer_listIbE4sizeEv(ptr noundef nonnull align 8 dereferenceable(16) %0) #5 comdat align 2 {
  %2 = alloca ptr, align 8
  store ptr %0, ptr %2, align 8, !tbaa !499
  %3 = load ptr, ptr %2, align 8
  %4 = getelementptr inbounds nuw %"class.std::initializer_list.228", ptr %3, i32 0, i32 1
  %5 = load i64, ptr %4, align 8, !tbaa !498
  ret i64 %5
}

; Function Attrs: inlinehint mustprogress uwtable
define linkonce_odr hidden noundef nonnull align 8 dereferenceable(8) ptr @_ZN6casadi8FunctionaSERKS0_(ptr noundef nonnull align 8 dereferenceable(8) %0, ptr noundef nonnull align 8 dereferenceable(8) %1) #7 comdat align 2 {
  %3 = alloca ptr, align 8
  %4 = alloca ptr, align 8
  store ptr %0, ptr %3, align 8, !tbaa !282
  store ptr %1, ptr %4, align 8, !tbaa !282
  %5 = load ptr, ptr %3, align 8
  %6 = load ptr, ptr %4, align 8, !tbaa !282
  %7 = call noundef nonnull align 8 dereferenceable(8) ptr @_ZN6casadi12SharedObjectaSERKS0_(ptr noundef nonnull align 8 dereferenceable(8) %5, ptr noundef nonnull align 8 dereferenceable(8) %6)
  ret ptr %5
}

; Function Attrs: mustprogress nounwind uwtable
define linkonce_odr hidden noundef ptr @_ZNKSt16initializer_listIbE3endEv(ptr noundef nonnull align 8 dereferenceable(16) %0) #5 comdat align 2 {
  %2 = alloca ptr, align 8
  store ptr %0, ptr %2, align 8, !tbaa !499
  %3 = load ptr, ptr %2, align 8
  %4 = call noundef ptr @_ZNKSt16initializer_listIbE5beginEv(ptr noundef nonnull align 8 dereferenceable(16) %3) #3
  %5 = call noundef i64 @_ZNKSt16initializer_listIbE4sizeEv(ptr noundef nonnull align 8 dereferenceable(16) %3) #3
  %6 = getelementptr inbounds nuw i8, ptr %4, i64 %5
  ret ptr %6
}

; Function Attrs: mustprogress nounwind uwtable
define linkonce_odr hidden noundef ptr @_ZNKSt16initializer_listIbE5beginEv(ptr noundef nonnull align 8 dereferenceable(16) %0) #5 comdat align 2 {
  %2 = alloca ptr, align 8
  store ptr %0, ptr %2, align 8, !tbaa !499
  %3 = load ptr, ptr %2, align 8
  %4 = getelementptr inbounds nuw %"class.std::initializer_list.228", ptr %3, i32 0, i32 0
  %5 = load ptr, ptr %4, align 8, !tbaa !496
  ret ptr %5
}

; Function Attrs: mustprogress uwtable
define void @_ZNK6casadi18DaeBuilderInternal11clear_cacheEv(ptr noundef nonnull align 8 dereferenceable(1017) %0) #6 align 2 personality ptr @__gxx_personality_v0 {
  %2 = alloca ptr, align 8
  %3 = alloca ptr, align 8
  %4 = alloca %"class.std::initializer_list.228", align 8
  %5 = alloca [2 x i8], align 1
  %6 = alloca ptr, align 8
  %7 = alloca ptr, align 8
  %8 = alloca i32, align 4
  %9 = alloca i8, align 1
  %10 = alloca ptr, align 8
  %11 = alloca %"class.std::initializer_list.228", align 8
  %12 = alloca [2 x i8], align 1
  %13 = alloca ptr, align 8
  %14 = alloca ptr, align 8
  %15 = alloca i8, align 1
  %16 = alloca ptr, align 8
  %17 = alloca %"class.std::initializer_list.228", align 8
  %18 = alloca [2 x i8], align 1
  %19 = alloca ptr, align 8
  %20 = alloca ptr, align 8
  %21 = alloca i8, align 1
  %22 = alloca ptr, align 8
  %23 = alloca %"class.casadi::Function", align 8
  %24 = alloca ptr, align 8
  %25 = alloca i32, align 4
  store ptr %0, ptr %2, align 8, !tbaa !112
  %26 = load ptr, ptr %2, align 8
  call void @llvm.lifetime.start.p0(i64 8, ptr %3) #3
  call void @llvm.lifetime.start.p0(i64 16, ptr %4) #3
  call void @llvm.lifetime.start.p0(i64 2, ptr %5) #3
  store i8 0, ptr %5, align 1, !tbaa !27
  %27 = getelementptr inbounds i8, ptr %5, i64 1
  store i8 1, ptr %27, align 1, !tbaa !27
  %28 = getelementptr inbounds nuw %"class.std::initializer_list.228", ptr %4, i32 0, i32 0
  store ptr %5, ptr %28, align 8, !tbaa !496
  %29 = getelementptr inbounds nuw %"class.std::initializer_list.228", ptr %4, i32 0, i32 1
  store i64 2, ptr %29, align 8, !tbaa !498
  store ptr %4, ptr %3, align 8, !tbaa !499
  call void @llvm.lifetime.start.p0(i64 8, ptr %6) #3
  %30 = load ptr, ptr %3, align 8, !tbaa !499
  %31 = call noundef ptr @_ZNKSt16initializer_listIbE5beginEv(ptr noundef nonnull align 8 dereferenceable(16) %30) #3
  store ptr %31, ptr %6, align 8, !tbaa !351
  call void @llvm.lifetime.start.p0(i64 8, ptr %7) #3
  %32 = load ptr, ptr %3, align 8, !tbaa !499
  %33 = call noundef ptr @_ZNKSt16initializer_listIbE3endEv(ptr noundef nonnull align 8 dereferenceable(16) %32) #3
  store ptr %33, ptr %7, align 8, !tbaa !351
  br label %34

34:                                               ; preds = %110, %1
  %35 = load ptr, ptr %6, align 8, !tbaa !351
  %36 = load ptr, ptr %7, align 8, !tbaa !351
  %37 = icmp ne ptr %35, %36
  br i1 %37, label %39, label %38

38:                                               ; preds = %34
  store i32 2, ptr %8, align 4
  call void @llvm.lifetime.end.p0(i64 8, ptr %7) #3
  call void @llvm.lifetime.end.p0(i64 8, ptr %6) #3
  call void @llvm.lifetime.end.p0(i64 2, ptr %5) #3
  call void @llvm.lifetime.end.p0(i64 16, ptr %4) #3
  call void @llvm.lifetime.end.p0(i64 8, ptr %3) #3
  br label %113

39:                                               ; preds = %34
  call void @llvm.lifetime.start.p0(i64 1, ptr %9) #3
  %40 = load ptr, ptr %6, align 8, !tbaa !351
  %41 = load i8, ptr %40, align 1, !tbaa !27, !range !29, !noundef !30
  %42 = trunc i8 %41 to i1
  %43 = zext i1 %42 to i8
  store i8 %43, ptr %9, align 1, !tbaa !27
  call void @llvm.lifetime.start.p0(i64 8, ptr %10) #3
  call void @llvm.lifetime.start.p0(i64 16, ptr %11) #3
  call void @llvm.lifetime.start.p0(i64 2, ptr %12) #3
  store i8 0, ptr %12, align 1, !tbaa !27
  %44 = getelementptr inbounds i8, ptr %12, i64 1
  store i8 1, ptr %44, align 1, !tbaa !27
  %45 = getelementptr inbounds nuw %"class.std::initializer_list.228", ptr %11, i32 0, i32 0
  store ptr %12, ptr %45, align 8, !tbaa !496
  %46 = getelementptr inbounds nuw %"class.std::initializer_list.228", ptr %11, i32 0, i32 1
  store i64 2, ptr %46, align 8, !tbaa !498
  store ptr %11, ptr %10, align 8, !tbaa !499
  call void @llvm.lifetime.start.p0(i64 8, ptr %13) #3
  %47 = load ptr, ptr %10, align 8, !tbaa !499
  %48 = call noundef ptr @_ZNKSt16initializer_listIbE5beginEv(ptr noundef nonnull align 8 dereferenceable(16) %47) #3
  store ptr %48, ptr %13, align 8, !tbaa !351
  call void @llvm.lifetime.start.p0(i64 8, ptr %14) #3
  %49 = load ptr, ptr %10, align 8, !tbaa !499
  %50 = call noundef ptr @_ZNKSt16initializer_listIbE3endEv(ptr noundef nonnull align 8 dereferenceable(16) %49) #3
  store ptr %50, ptr %14, align 8, !tbaa !351
  br label %51

51:                                               ; preds = %106, %39
  %52 = load ptr, ptr %13, align 8, !tbaa !351
  %53 = load ptr, ptr %14, align 8, !tbaa !351
  %54 = icmp ne ptr %52, %53
  br i1 %54, label %56, label %55

55:                                               ; preds = %51
  store i32 4, ptr %8, align 4
  call void @llvm.lifetime.end.p0(i64 8, ptr %14) #3
  call void @llvm.lifetime.end.p0(i64 8, ptr %13) #3
  call void @llvm.lifetime.end.p0(i64 2, ptr %12) #3
  call void @llvm.lifetime.end.p0(i64 16, ptr %11) #3
  call void @llvm.lifetime.end.p0(i64 8, ptr %10) #3
  br label %109

56:                                               ; preds = %51
  call void @llvm.lifetime.start.p0(i64 1, ptr %15) #3
  %57 = load ptr, ptr %13, align 8, !tbaa !351
  %58 = load i8, ptr %57, align 1, !tbaa !27, !range !29, !noundef !30
  %59 = trunc i8 %58 to i1
  %60 = zext i1 %59 to i8
  store i8 %60, ptr %15, align 1, !tbaa !27
  call void @llvm.lifetime.start.p0(i64 8, ptr %16) #3
  call void @llvm.lifetime.start.p0(i64 16, ptr %17) #3
  call void @llvm.lifetime.start.p0(i64 2, ptr %18) #3
  store i8 0, ptr %18, align 1, !tbaa !27
  %61 = getelementptr inbounds i8, ptr %18, i64 1
  store i8 1, ptr %61, align 1, !tbaa !27
  %62 = getelementptr inbounds nuw %"class.std::initializer_list.228", ptr %17, i32 0, i32 0
  store ptr %18, ptr %62, align 8, !tbaa !496
  %63 = getelementptr inbounds nuw %"class.std::initializer_list.228", ptr %17, i32 0, i32 1
  store i64 2, ptr %63, align 8, !tbaa !498
  store ptr %17, ptr %16, align 8, !tbaa !499
  call void @llvm.lifetime.start.p0(i64 8, ptr %19) #3
  %64 = load ptr, ptr %16, align 8, !tbaa !499
  %65 = call noundef ptr @_ZNKSt16initializer_listIbE5beginEv(ptr noundef nonnull align 8 dereferenceable(16) %64) #3
  store ptr %65, ptr %19, align 8, !tbaa !351
  call void @llvm.lifetime.start.p0(i64 8, ptr %20) #3
  %66 = load ptr, ptr %16, align 8, !tbaa !499
  %67 = call noundef ptr @_ZNKSt16initializer_listIbE3endEv(ptr noundef nonnull align 8 dereferenceable(16) %66) #3
  store ptr %67, ptr %20, align 8, !tbaa !351
  br label %68

68:                                               ; preds = %102, %56
  %69 = load ptr, ptr %19, align 8, !tbaa !351
  %70 = load ptr, ptr %20, align 8, !tbaa !351
  %71 = icmp ne ptr %69, %70
  br i1 %71, label %73, label %72

72:                                               ; preds = %68
  store i32 6, ptr %8, align 4
  call void @llvm.lifetime.end.p0(i64 8, ptr %20) #3
  call void @llvm.lifetime.end.p0(i64 8, ptr %19) #3
  call void @llvm.lifetime.end.p0(i64 2, ptr %18) #3
  call void @llvm.lifetime.end.p0(i64 16, ptr %17) #3
  call void @llvm.lifetime.end.p0(i64 8, ptr %16) #3
  br label %105

73:                                               ; preds = %68
  call void @llvm.lifetime.start.p0(i64 1, ptr %21) #3
  %74 = load ptr, ptr %19, align 8, !tbaa !351
  %75 = load i8, ptr %74, align 1, !tbaa !27, !range !29, !noundef !30
  %76 = trunc i8 %75 to i1
  %77 = zext i1 %76 to i8
  store i8 %77, ptr %21, align 1, !tbaa !27
  call void @llvm.lifetime.start.p0(i64 8, ptr %22) #3
  %78 = getelementptr inbounds nuw %"class.casadi::DaeBuilderInternal", ptr %26, i32 0, i32 45
  %79 = load i8, ptr %9, align 1, !tbaa !27, !range !29, !noundef !30
  %80 = trunc i8 %79 to i1
  %81 = zext i1 %80 to i64
  %82 = getelementptr inbounds nuw [2 x [2 x [2 x %"class.casadi::Function"]]], ptr %78, i64 0, i64 %81
  %83 = load i8, ptr %15, align 1, !tbaa !27, !range !29, !noundef !30
  %84 = trunc i8 %83 to i1
  %85 = zext i1 %84 to i64
  %86 = getelementptr inbounds nuw [2 x [2 x %"class.casadi::Function"]], ptr %82, i64 0, i64 %85
  %87 = load i8, ptr %21, align 1, !tbaa !27, !range !29, !noundef !30
  %88 = trunc i8 %87 to i1
  %89 = zext i1 %88 to i64
  %90 = getelementptr inbounds nuw [2 x %"class.casadi::Function"], ptr %86, i64 0, i64 %89
  store ptr %90, ptr %22, align 8, !tbaa !282
  %91 = load ptr, ptr %22, align 8, !tbaa !282
  %92 = call noundef zeroext i1 @_ZNK6casadi13GenericSharedINS_12SharedObjectENS_20SharedObjectInternalEE7is_nullEv(ptr noundef nonnull align 8 dereferenceable(8) %91)
  br i1 %92, label %101, label %93

93:                                               ; preds = %73
  call void @llvm.lifetime.start.p0(i64 8, ptr %23) #3
  call void @_ZN6casadi8FunctionC1Ev(ptr noundef nonnull align 8 dereferenceable(8) %23)
  %94 = load ptr, ptr %22, align 8, !tbaa !282
  %95 = invoke noundef nonnull align 8 dereferenceable(8) ptr @_ZN6casadi8FunctionaSERKS0_(ptr noundef nonnull align 8 dereferenceable(8) %94, ptr noundef nonnull align 8 dereferenceable(8) %23)
          to label %96 unwind label %97

96:                                               ; preds = %93
  call void @_ZN6casadi8FunctionD1Ev(ptr noundef nonnull align 8 dereferenceable(8) %23) #3
  call void @llvm.lifetime.end.p0(i64 8, ptr %23) #3
  br label %101

97:                                               ; preds = %93
  %98 = landingpad { ptr, i32 }
          cleanup
  %99 = extractvalue { ptr, i32 } %98, 0
  store ptr %99, ptr %24, align 8
  %100 = extractvalue { ptr, i32 } %98, 1
  store i32 %100, ptr %25, align 4
  call void @_ZN6casadi8FunctionD1Ev(ptr noundef nonnull align 8 dereferenceable(8) %23) #3
  call void @llvm.lifetime.end.p0(i64 8, ptr %23) #3
  call void @llvm.lifetime.end.p0(i64 8, ptr %22) #3
  call void @llvm.lifetime.end.p0(i64 1, ptr %21) #3
  call void @llvm.lifetime.end.p0(i64 8, ptr %20) #3
  call void @llvm.lifetime.end.p0(i64 8, ptr %19) #3
  call void @llvm.lifetime.end.p0(i64 2, ptr %18) #3
  call void @llvm.lifetime.end.p0(i64 16, ptr %17) #3
  call void @llvm.lifetime.end.p0(i64 8, ptr %16) #3
  call void @llvm.lifetime.end.p0(i64 1, ptr %15) #3
  call void @llvm.lifetime.end.p0(i64 8, ptr %14) #3
  call void @llvm.lifetime.end.p0(i64 8, ptr %13) #3
  call void @llvm.lifetime.end.p0(i64 2, ptr %12) #3
  call void @llvm.lifetime.end.p0(i64 16, ptr %11) #3
  call void @llvm.lifetime.end.p0(i64 8, ptr %10) #3
  call void @llvm.lifetime.end.p0(i64 1, ptr %9) #3
  call void @llvm.lifetime.end.p0(i64 8, ptr %7) #3
  call void @llvm.lifetime.end.p0(i64 8, ptr %6) #3
  call void @llvm.lifetime.end.p0(i64 2, ptr %5) #3
  call void @llvm.lifetime.end.p0(i64 16, ptr %4) #3
  call void @llvm.lifetime.end.p0(i64 8, ptr %3) #3
  br label %115

101:                                              ; preds = %96, %73
  call void @llvm.lifetime.end.p0(i64 8, ptr %22) #3
  call void @llvm.lifetime.end.p0(i64 1, ptr %21) #3
  br label %102

102:                                              ; preds = %101
  %103 = load ptr, ptr %19, align 8, !tbaa !351
  %104 = getelementptr inbounds nuw i8, ptr %103, i32 1
  store ptr %104, ptr %19, align 8, !tbaa !351
  br label %68

105:                                              ; preds = %72
  call void @llvm.lifetime.end.p0(i64 1, ptr %15) #3
  br label %106

106:                                              ; preds = %105
  %107 = load ptr, ptr %13, align 8, !tbaa !351
  %108 = getelementptr inbounds nuw i8, ptr %107, i32 1
  store ptr %108, ptr %13, align 8, !tbaa !351
  br label %51

109:                                              ; preds = %55
  call void @llvm.lifetime.end.p0(i64 1, ptr %9) #3
  br label %110

110:                                              ; preds = %109
  %111 = load ptr, ptr %6, align 8, !tbaa !351
  %112 = getelementptr inbounds nuw i8, ptr %111, i32 1
  store ptr %112, ptr %6, align 8, !tbaa !351
  br label %34

113:                                              ; preds = %38
  %114 = getelementptr inbounds nuw %"class.casadi::DaeBuilderInternal", ptr %26, i32 0, i32 46
  store i8 0, ptr %114, align 8, !tbaa !176
  ret void

115:                                              ; preds = %97
  %116 = load ptr, ptr %24, align 8
  %117 = load i32, ptr %25, align 4
  %118 = insertvalue { ptr, i32 } poison, ptr %116, 0
  %119 = insertvalue { ptr, i32 } %118, i32 %117, 1
  resume { ptr, i32 } %119
}