; Function Attrs: mustprogress uwtable
define void @_ZNK6casadi18DaeBuilderInternal11clear_cacheEv(ptr noundef nonnull align 8 dereferenceable(1017) %0) local_unnamed_addr #4 align 2 personality ptr @__gxx_personality_v0 {
  %2 = alloca [2 x i8], align 1
  %3 = alloca [2 x i8], align 1
  %4 = alloca [2 x i8], align 1
  %5 = alloca %"class.casadi::Function", align 8
  call void @llvm.lifetime.start.p0(i64 2, ptr nonnull %2) #30
  store i8 0, ptr %2, align 1, !tbaa !309
  %6 = getelementptr inbounds nuw i8, ptr %2, i64 1
  store i8 1, ptr %6, align 1, !tbaa !309
  %7 = getelementptr inbounds nuw i8, ptr %3, i64 1
  %8 = getelementptr inbounds nuw i8, ptr %4, i64 1
  %9 = getelementptr inbounds nuw i8, ptr %0, i64 952
  br label %12

10:                                               ; preds = %15
  call void @llvm.lifetime.end.p0(i64 2, ptr nonnull %2) #30
  %11 = getelementptr inbounds nuw i8, ptr %0, i64 1016
  store i8 0, ptr %11, align 8, !tbaa !233
  ret void

12:                                               ; preds = %1, %15
  %.0.idx38 = phi i64 [ 0, %1 ], [ %.0.add, %15 ]
  %.0.ptr = getelementptr inbounds nuw i8, ptr %2, i64 %.0.idx38
  %13 = load i8, ptr %.0.ptr, align 1, !tbaa !309, !range !171, !noundef !172
  %14 = zext nneg i8 %13 to i64
  call void @llvm.lifetime.start.p0(i64 2, ptr nonnull %3) #30
  store i8 0, ptr %3, align 1, !tbaa !309
  store i8 1, ptr %7, align 1, !tbaa !309
  br label %16

15:                                               ; preds = %19
  call void @llvm.lifetime.end.p0(i64 2, ptr nonnull %3) #30
  %.0.add = add nuw nsw i64 %.0.idx38, 1
  %.not = icmp eq i64 %.0.add, 2
  br i1 %.not, label %10, label %12

16:                                               ; preds = %12, %19
  %.025.idx37 = phi i64 [ 0, %12 ], [ %.025.add, %19 ]
  %.025.ptr = getelementptr inbounds nuw i8, ptr %3, i64 %.025.idx37
  %17 = load i8, ptr %.025.ptr, align 1, !tbaa !309, !range !171, !noundef !172
  %18 = zext nneg i8 %17 to i64
  call void @llvm.lifetime.start.p0(i64 2, ptr nonnull %4) #30
  store i8 0, ptr %4, align 1, !tbaa !309
  store i8 1, ptr %8, align 1, !tbaa !309
  br label %20

19:                                               ; preds = %29
  call void @llvm.lifetime.end.p0(i64 2, ptr nonnull %4) #30
  %.025.add = add nuw nsw i64 %.025.idx37, 1
  %.not27 = icmp eq i64 %.025.add, 2
  br i1 %.not27, label %15, label %16

20:                                               ; preds = %16, %29
  %.026.idx36 = phi i64 [ 0, %16 ], [ %.026.add, %29 ]
  %.026.ptr = getelementptr inbounds nuw i8, ptr %4, i64 %.026.idx36
  %21 = load i8, ptr %.026.ptr, align 1, !tbaa !309, !range !171, !noundef !172
  %22 = zext nneg i8 %21 to i64
  %23 = getelementptr inbounds nuw [2 x [2 x [2 x %"class.casadi::Function"]]], ptr %9, i64 0, i64 %14, i64 %18, i64 %22
  %24 = call noundef zeroext i1 @_ZNK6casadi13GenericSharedINS_12SharedObjectENS_20SharedObjectInternalEE7is_nullEv(ptr noundef nonnull align 8 dereferenceable(8) %23)
  br i1 %24, label %29, label %25

25:                                               ; preds = %20
  call void @llvm.lifetime.start.p0(i64 8, ptr nonnull %5) #30
  call void @_ZN6casadi8FunctionC1Ev(ptr noundef nonnull align 8 dereferenceable(8) %5)
  %26 = invoke noundef nonnull align 8 dereferenceable(8) ptr @_ZN6casadi13GenericSharedINS_12SharedObjectENS_20SharedObjectInternalEEaSERKS3_(ptr noundef nonnull align 8 dereferenceable(8) %23, ptr noundef nonnull align 8 dereferenceable(8) %5)
          to label %_ZN6casadi8FunctionaSERKS0_.exit unwind label %27

_ZN6casadi8FunctionaSERKS0_.exit:                 ; preds = %25
  call void @_ZN6casadi8FunctionD1Ev(ptr noundef nonnull align 8 dereferenceable(8) %5) #30
  call void @llvm.lifetime.end.p0(i64 8, ptr nonnull %5) #30
  br label %29

27:                                               ; preds = %25
  %28 = landingpad { ptr, i32 }
          cleanup
  call void @_ZN6casadi8FunctionD1Ev(ptr noundef nonnull align 8 dereferenceable(8) %5) #30
  call void @llvm.lifetime.end.p0(i64 8, ptr nonnull %5) #30
  call void @llvm.lifetime.end.p0(i64 2, ptr nonnull %4) #30
  call void @llvm.lifetime.end.p0(i64 2, ptr nonnull %3) #30
  call void @llvm.lifetime.end.p0(i64 2, ptr nonnull %2) #30
  resume { ptr, i32 } %28

29:                                               ; preds = %_ZN6casadi8FunctionaSERKS0_.exit, %20
  %.026.add = add nuw nsw i64 %.026.idx36, 1
  %.not28 = icmp eq i64 %.026.add, 2
  br i1 %.not28, label %19, label %20
}